-----BEGIN CERTIFICATE-----
MIIFbDCCA1SgAwIBAgIQaAV8NQv/Xdusi4IU+tpUfjANBgkqhkiG9w0BAQsFADBQ
MQswCQYDVQQGEwJVUzEYMBYGA1UEChMPV0ZBIEhvdHNwb3QgMi4wMScwJQYDVQQD
Ex5Ib3RzcG90IDIuMCBUcnVzdCBSb290IENBIC0gMDEwHhcNMTMxMTIwMDAwMDAw
WhcNNDMxMTE5MjM1OTU5WjBQMQswCQYDVQQGEwJVUzEYMBYGA1UEChMPV0ZBIEhv
dHNwb3QgMi4wMScwJQYDVQQDEx5Ib3RzcG90IDIuMCBUcnVzdCBSb290IENBIC0g
MDEwggIiMA0GCSqGSIb3DQEBAQUAA4ICDwAwggIKAoICAQC/gf4CHxWjr2EcktAZ
pHT4z1yFYZILD3ZVqvzzXBK+YKjWhjsgZ28Z1VwXqu51JvVzwTGDalPf5m7zMcJW
CpPtPBdxxwQ/cBDPK4w+/sCuYYSddlMLzwZ/IgwFike12tKTR7Kk7Nk6ghrYaxCG
R+QEZDVrxITj79vGpgk2otVnMI4d3H9mWt1o6Lx+hVioyBgOvmo2OWHR2uKkbg5h
tktXqmBEtzK+qDqIIUY4WRRZHxlOaF2/EdIIGhXlf+Vlr13aPqOPiDiE08o+GARz
TIp8BrW2boo0+2kpEFUKiqc427vOYEkUdSMfwu4aGOcuOewc8sk6ztquL/JcPROL
VSFSSFR3HKhUto8EJcHEEG9wzcOi1OO/OOSVxjNwiaV/hB9Ed1wvoBhiJ+C+Q8/K
HXmoH/ankXDaB06yjt2Ojemt0nO45qlarRj8tO7zbpghJuJxztur47U7PJta7Zcg
z7kOPJPTAbzmOU2TXt1pXO1hVnSlV+M1rRwe7qivnSMMrTnkX15YWmyK27/tgJeu
muR2YzvPwPtF/m1N0bRKI7FW05NYg3smItFq0E/eyf/orgolcXTZ7zNRyRGnjWNs
/w9SDbdby0uVUfdN4V/5uC4HBmA1rikoBbGZ+nzCtesY4yW8eEwMfguVpNT3ueaU
q30nufeY2VnA3Rv1WH8TaeZU+wIDAQABo0IwQDAPBgNVHRMBAf8EBTADAQH/MA4G
A1UdDwEB/wQEAwIBBjAdBgNVHQ4EFgQU+RjGVZbebjpzEPfthaTLqbvXMiEwDQYJ
KoZIhvcNAQELBQADggIBABj3LP1UXVa16HYeXC1+GU1dX/cla1n1bwpIlxRnCZ5/
3I3zGw/nRnsLUTkGf8q3XCgin+jX22kyzzQNrgepn0zqBsmAj+pjUUwWzYQUzphc
Uzmg4PJRWaEaGG3kvD+wJEC0pWvIhe48qcq8FZCCmjbvecEVn5mM0smPzPyUjf/o
fjUMQvVWqug/Ff5HT6kbyDWhC3nD+8IZ5PjyO85OnoBnQkr8WYwr24XJgO2HS2rs
W40CzQe3Kdg7HHyef+/iyLYTBJH7EUJPCHGVQtZ3q0aNqURkutXJ/CxKJYMcNTEB
x+a09EhZ6DOHQDqsdTuAqGh3VyrxhFk+3suNsxoh6XaRK10VslvdNB/1YKfU8DWe
V6XfDH/TR0NIL04exUp3rER8sERulpJGBOnaG6OQKh4bFYDB406+QfusQnvO0aYR
UXJzf01B15HRJgpZsggpIuex0UDcJhTTpkRfTj8L4ayUce2ZRsGn3dBaT9ZMx4o9
E/YsQyOpfw28gM5u+zZt4BJz4gAaRGbp4r4sk5Vm/P1/0EXJ70Du6K9d0HAHtpEv
Y94Ww5W6fpMDdyAKYTXZBgTX3cqtikNkLX/kHH8l4o/XW2sXqU3X7vOYqgeVYoD9
NnhZXYCerH4Se5Lgj8/KhXxRWtcn3XduMdkC6UTApMooA64Vs508173Z3lJn2SeQ
-----END CERTIFICATE-----
Certificate:
    Data:
        Version: 3 (0x2)
        Serial Number:
            68:05:7c:35:0b:ff:5d:db:ac:8b:82:14:fa:da:54:7e
    Signature Algorithm: sha256WithRSAEncryption
        Issuer: C=US, O=WFA Hotspot 2.0, CN=Hotspot 2.0 Trust Root CA - 01
        Validity
            Not Before: Nov 20 00:00:00 2013 GMT
            Not After : Nov 19 23:59:59 2043 GMT
        Subject: C=US, O=WFA Hotspot 2.0, CN=Hotspot 2.0 Trust Root CA - 01
        Subject Public Key Info:
            Public Key Algorithm: rsaEncryption
                Public-Key: (4096 bit)
                Modulus:
                    00:bf:81:fe:02:1f:15:a3:af:61:1c:92:d0:19:a4:
                    74:f8:cf:5c:85:61:92:0b:0f:76:55:aa:fc:f3:5c:
                    12:be:60:a8:d6:86:3b:20:67:6f:19:d5:5c:17:aa:
                    ee:75:26:f5:73:c1:31:83:6a:53:df:e6:6e:f3:31:
                    c2:56:0a:93:ed:3c:17:71:c7:04:3f:70:10:cf:2b:
                    8c:3e:fe:c0:ae:61:84:9d:76:53:0b:cf:06:7f:22:
                    0c:05:8a:47:b5:da:d2:93:47:b2:a4:ec:d9:3a:82:
                    1a:d8:6b:10:86:47:e4:04:64:35:6b:c4:84:e3:ef:
                    db:c6:a6:09:36:a2:d5:67:30:8e:1d:dc:7f:66:5a:
                    dd:68:e8:bc:7e:85:58:a8:c8:18:0e:be:6a:36:39:
                    61:d1:da:e2:a4:6e:0e:61:b6:4b:57:aa:60:44:b7:
                    32:be:a8:3a:88:21:46:38:59:14:59:1f:19:4e:68:
                    5d:bf:11:d2:08:1a:15:e5:7f:e5:65:af:5d:da:3e:
                    a3:8f:88:38:84:d3:ca:3e:18:04:73:4c:8a:7c:06:
                    b5:b6:6e:8a:34:fb:69:29:10:55:0a:8a:a7:38:db:
                    bb:ce:60:49:14:75:23:1f:c2:ee:1a:18:e7:2e:39:
                    ec:1c:f2:c9:3a:ce:da:ae:2f:f2:5c:3d:13:8b:55:
                    21:52:48:54:77:1c:a8:54:b6:8f:04:25:c1:c4:10:
                    6f:70:cd:c3:a2:d4:e3:bf:38:e4:95:c6:33:70:89:
                    a5:7f:84:1f:44:77:5c:2f:a0:18:62:27:e0:be:43:
                    cf:ca:1d:79:a8:1f:f6:a7:91:70:da:07:4e:b2:8e:
                    dd:8e:8d:e9:ad:d2:73:b8:e6:a9:5a:ad:18:fc:b4:
                    ee:f3:6e:98:21:26:e2:71:ce:db:ab:e3:b5:3b:3c:
                    9b:5a:ed:97:20:cf:b9:0e:3c:93:d3:01:bc:e6:39:
                    4d:93:5e:dd:69:5c:ed:61:56:74:a5:57:e3:35:ad:
                    1c:1e:ee:a8:af:9d:23:0c:ad:39:e4:5f:5e:58:5a:
                    6c:8a:db:bf:ed:80:97:ae:9a:e4:76:63:3b:cf:c0:
                    fb:45:fe:6d:4d:d1:b4:4a:23:b1:56:d3:93:58:83:
                    7b:26:22:d1:6a:d0:4f:de:c9:ff:e8:ae:0a:25:71:
                    74:d9:ef:33:51:c9:11:a7:8d:63:6c:ff:0f:52:0d:
                    b7:5b:cb:4b:95:51:f7:4d:e1:5f:f9:b8:2e:07:06:
                    60:35:ae:29:28:05:b1:99:fa:7c:c2:b5:eb:18:e3:
                    25:bc:78:4c:0c:7e:0b:95:a4:d4:f7:b9:e6:94:ab:
                    7d:27:b9:f7:98:d9:59:c0:dd:1b:f5:58:7f:13:69:
                    e6:54:fb
                Exponent: 65537 (0x10001)
        X509v3 extensions:
            X509v3 Basic Constraints: critical
                CA:TRUE
            X509v3 Key Usage: critical
                Certificate Sign, CRL Sign
            X509v3 Subject Key Identifier: 
                F9:18:C6:55:96:DE:6E:3A:73:10:F7:ED:85:A4:CB:A9:BB:D7:32:21
    Signature Algorithm: sha256WithRSAEncryption
         18:f7:2c:fd:54:5d:56:b5:e8:76:1e:5c:2d:7e:19:4d:5d:5f:
         f7:25:6b:59:f5:6f:0a:48:97:14:67:09:9e:7f:dc:8d:f3:1b:
         0f:e7:46:7b:0b:51:39:06:7f:ca:b7:5c:28:22:9f:e8:d7:db:
         69:32:cf:34:0d:ae:07:a9:9f:4c:ea:06:c9:80:8f:ea:63:51:
         4c:16:cd:84:14:ce:98:5c:53:39:a0:e0:f2:51:59:a1:1a:18:
         6d:e4:bc:3f:b0:24:40:b4:a5:6b:c8:85:ee:3c:a9:ca:bc:15:
         90:82:9a:36:ef:79:c1:15:9f:99:8c:d2:c9:8f:cc:fc:94:8d:
         ff:e8:7e:35:0c:42:f5:56:aa:e8:3f:15:fe:47:4f:a9:1b:c8:
         35:a1:0b:79:c3:fb:c2:19:e4:f8:f2:3b:ce:4e:9e:80:67:42:
         4a:fc:59:8c:2b:db:85:c9:80:ed:87:4b:6a:ec:5b:8d:02:cd:
         07:b7:29:d8:3b:1c:7c:9e:7f:ef:e2:c8:b6:13:04:91:fb:11:
         42:4f:08:71:95:42:d6:77:ab:46:8d:a9:44:64:ba:d5:c9:fc:
         2c:4a:25:83:1c:35:31:01:c7:e6:b4:f4:48:59:e8:33:87:40:
         3a:ac:75:3b:80:a8:68:77:57:2a:f1:84:59:3e:de:cb:8d:b3:
         1a:21:e9:76:91:2b:5d:15:b2:5b:dd:34:1f:f5:60:a7:d4:f0:
         35:9e:57:a5:df:0c:7f:d3:47:43:48:2f:4e:1e:c5:4a:77:ac:
         44:7c:b0:44:6e:96:92:46:04:e9:da:1b:a3:90:2a:1e:1b:15:
         80:c1:e3:4e:be:41:fb:ac:42:7b:ce:d1:a6:11:51:72:73:7f:
         4d:41:d7:91:d1:26:0a:59:b2:08:29:22:e7:b1:d1:40:dc:26:
         14:d3:a6:44:5f:4e:3f:0b:e1:ac:94:71:ed:99:46:c1:a7:dd:
         d0:5a:4f:d6:4c:c7:8a:3d:13:f6:2c:43:23:a9:7f:0d:bc:80:
         ce:6e:fb:36:6d:e0:12:73:e2:00:1a:44:66:e9:e2:be:2c:93:
         95:66:fc:fd:7f:d0:45:c9:ef:40:ee:e8:af:5d:d0:70:07:b6:
         91:2f:63:de:16:c3:95:ba:7e:93:03:77:20:0a:61:35:d9:06:
         04:d7:dd:ca:ad:8a:43:64:2d:7f:e4:1c:7f:25:e2:8f:d7:5b:
         6b:17:a9:4d:d7:ee:f3:98:aa:07:95:62:80:fd:36:78:59:5d:
         80:9e:ac:7e:12:7b:92:e0:8f:cf:ca:85:7c:51:5a:d7:27:dd:
         77:6e:31:d9:02:e9:44:c0:a4:ca:28:03:ae:15:b3:9d:3c:d7:
         bd:d9:de:52:67:d9:27:90
SHA1 Fingerprint=BB:49:24:83:18:47:95:2B:DB:1A:12:B0:38:EC:51:54:AD:CB:DE:43
