-----BEGIN CERTIFICATE-----
MIIFXTCCA0WgAwIBAgIBATANBgkqhkiG9w0BAQsFADBQMQswCQYDVQQGEwJVUzEY
MBYGA1UECgwPV0ZBIEhvdHNwb3QgMi4wMScwJQYDVQQDDB5Ib3RzcG90IDIuMCBU
cnVzdCBSb290IENBIC0gMDIwHhcNMTMxMjAyMjA1NzU3WhcNNDMxMjAyMjA1NTAz
WjBQMQswCQYDVQQGEwJVUzEYMBYGA1UECgwPV0ZBIEhvdHNwb3QgMi4wMScwJQYD
VQQDDB5Ib3RzcG90IDIuMCBUcnVzdCBSb290IENBIC0gMDIwggIiMA0GCSqGSIb3
DQEBAQUAA4ICDwAwggIKAoICAQDCSoMqNhtTwbnIsINp6nUhx5UFuq9ZQoTv+KDk
vAajT0di6+cQG3sAVvZLySmJoiBAv3PizYYLOD4eGMrFQRqi7PmSJ83WqNv23ZYF
ryFFJiy/URXc/ALDuB3dgElPt24Mx7n2xDPAh9t82HTmuskpQRrsyg9QPoi5rRRS
Djm5mjFJjKChq99RWcweNV/KGH1sTwcmlDmNMScK16A+BBNiSvmZlsGJgAlP369k
lnNqt6UiDhepcktuKpHmSvNel+c/xqzR0gURfUnXcZhzjzS94Rx5O+CNWL4EGiJq
qKAfk99j/lbD0MWYo7Rh0UKQlXSdohWDiV93hxvvfugej8KUOIb+1wmd1Fi+lwDZ
bR2yg2f0qyxbC/tAV4JJNnuDLFb19leD78x+68eAnlbMi+xMH5lINs15+26s2H5d
lx9kwRDBJq02LuHnen6FLafWjejnnBQ/PuGD0ACvBegSsDKDaCuTAnTNS6MDmQr4
wza08iX360ZN+BbSAnCK1YGa/7J7fhyydwxLJ7s5Eo0b6SUMY87FMc5XmkAk4xxL
MLqS2HMtqsGBI5JQT0SgH0ghE6DjMWArBTZcD+swuzTi1/Cz5+Z9Es8xJ3MPvSZW
pJi6VVB2eVMAqfHOj4ozHoVpvJypIVGRwWBzVRWom76R47utuRK6uKzoLiB1jwE5
vwHpUQIDAQABo0IwQDAPBgNVHRMBAf8EBTADAQH/MA4GA1UdDwEB/wQEAwIBxjAd
BgNVHQ4EFgQU5C9c1OMsB+/MOwl9OKG2D/XSwrUwDQYJKoZIhvcNAQELBQADggIB
AGULYE/VrnA3K0ptgHrWlQoPfp5wGvScgsmy0wp9qE3b6n/4bLehBKb5w4Y3JVA9
gjxoQ5xE2ssDtULZ3nKnGWmMN3qOBoRZCA6KjKs1860p09tm1ScUsajDJ15Tp1nI
zfR0oP63+2bJx+JXM8fPKOJe245hj2rs1c3JXsGCe+UVrlGsotG+wR0PdrejaXJ8
HbhBQHcbhgjsD1Gb6Egm4YxRKAtcVY3q9EKKWAGhbC1qvCh1iLNKo3FeGgm2r3EG
L4cYJBb2fhSKltjISqCDhYq4tplOIeQSJJyJC8gfW/BnMU39lTjNgnSjjGPLQXGV
+Ulb/CgNMJ3RhRJdBoLcpIm/EeLx6JLq/2Erxy7CxjaSOcD0UKa14+dzLSHVsXft
HZuOy548X8m18KruSZsf5uAT3c7NqlXtr9YgOVUqSJykNAHTGi/BHB1dC2clKvxN
ElfLWWrG9yaAd5TFW0+3wsaDIwRZL584AsFwwAD3KMo1oU/2zRvtm0E+VghsuD/Z
IE1xaVGTPaL7ph/YgC9+0rGHieauT8SXz6Ryp3h0RtYMLFZOMTKM7xjmcbMZDwrO
c+J/XjK9dbiCqlx5/B8P0xWaYYHzvE5/fafiPYzoGyFVUXquu0dFCCQrvjF/y0tC
TPm4hQim3k1F+5NChcbeNggN+kq+VdlSqPhQEuOY+kNv
-----END CERTIFICATE-----
Certificate:
    Data:
        Version: 3 (0x2)
        Serial Number: 1 (0x1)
    Signature Algorithm: sha256WithRSAEncryption
        Issuer: C=US, O=WFA Hotspot 2.0, CN=Hotspot 2.0 Trust Root CA - 02
        Validity
            Not Before: Dec  2 20:57:57 2013 GMT
            Not After : Dec  2 20:55:03 2043 GMT
        Subject: C=US, O=WFA Hotspot 2.0, CN=Hotspot 2.0 Trust Root CA - 02
        Subject Public Key Info:
            Public Key Algorithm: rsaEncryption
                Public-Key: (4096 bit)
                Modulus:
                    00:c2:4a:83:2a:36:1b:53:c1:b9:c8:b0:83:69:ea:
                    75:21:c7:95:05:ba:af:59:42:84:ef:f8:a0:e4:bc:
                    06:a3:4f:47:62:eb:e7:10:1b:7b:00:56:f6:4b:c9:
                    29:89:a2:20:40:bf:73:e2:cd:86:0b:38:3e:1e:18:
                    ca:c5:41:1a:a2:ec:f9:92:27:cd:d6:a8:db:f6:dd:
                    96:05:af:21:45:26:2c:bf:51:15:dc:fc:02:c3:b8:
                    1d:dd:80:49:4f:b7:6e:0c:c7:b9:f6:c4:33:c0:87:
                    db:7c:d8:74:e6:ba:c9:29:41:1a:ec:ca:0f:50:3e:
                    88:b9:ad:14:52:0e:39:b9:9a:31:49:8c:a0:a1:ab:
                    df:51:59:cc:1e:35:5f:ca:18:7d:6c:4f:07:26:94:
                    39:8d:31:27:0a:d7:a0:3e:04:13:62:4a:f9:99:96:
                    c1:89:80:09:4f:df:af:64:96:73:6a:b7:a5:22:0e:
                    17:a9:72:4b:6e:2a:91:e6:4a:f3:5e:97:e7:3f:c6:
                    ac:d1:d2:05:11:7d:49:d7:71:98:73:8f:34:bd:e1:
                    1c:79:3b:e0:8d:58:be:04:1a:22:6a:a8:a0:1f:93:
                    df:63:fe:56:c3:d0:c5:98:a3:b4:61:d1:42:90:95:
                    74:9d:a2:15:83:89:5f:77:87:1b:ef:7e:e8:1e:8f:
                    c2:94:38:86:fe:d7:09:9d:d4:58:be:97:00:d9:6d:
                    1d:b2:83:67:f4:ab:2c:5b:0b:fb:40:57:82:49:36:
                    7b:83:2c:56:f5:f6:57:83:ef:cc:7e:eb:c7:80:9e:
                    56:cc:8b:ec:4c:1f:99:48:36:cd:79:fb:6e:ac:d8:
                    7e:5d:97:1f:64:c1:10:c1:26:ad:36:2e:e1:e7:7a:
                    7e:85:2d:a7:d6:8d:e8:e7:9c:14:3f:3e:e1:83:d0:
                    00:af:05:e8:12:b0:32:83:68:2b:93:02:74:cd:4b:
                    a3:03:99:0a:f8:c3:36:b4:f2:25:f7:eb:46:4d:f8:
                    16:d2:02:70:8a:d5:81:9a:ff:b2:7b:7e:1c:b2:77:
                    0c:4b:27:bb:39:12:8d:1b:e9:25:0c:63:ce:c5:31:
                    ce:57:9a:40:24:e3:1c:4b:30:ba:92:d8:73:2d:aa:
                    c1:81:23:92:50:4f:44:a0:1f:48:21:13:a0:e3:31:
                    60:2b:05:36:5c:0f:eb:30:bb:34:e2:d7:f0:b3:e7:
                    e6:7d:12:cf:31:27:73:0f:bd:26:56:a4:98:ba:55:
                    50:76:79:53:00:a9:f1:ce:8f:8a:33:1e:85:69:bc:
                    9c:a9:21:51:91:c1:60:73:55:15:a8:9b:be:91:e3:
                    bb:ad:b9:12:ba:b8:ac:e8:2e:20:75:8f:01:39:bf:
                    01:e9:51
                Exponent: 65537 (0x10001)
        X509v3 extensions:
            X509v3 Basic Constraints: critical
                CA:TRUE
            X509v3 Key Usage: critical
                Digital Signature, Non Repudiation, Certificate Sign, CRL Sign
            X509v3 Subject Key Identifier: 
                E4:2F:5C:D4:E3:2C:07:EF:CC:3B:09:7D:38:A1:B6:0F:F5:D2:C2:B5
    Signature Algorithm: sha256WithRSAEncryption
         65:0b:60:4f:d5:ae:70:37:2b:4a:6d:80:7a:d6:95:0a:0f:7e:
         9e:70:1a:f4:9c:82:c9:b2:d3:0a:7d:a8:4d:db:ea:7f:f8:6c:
         b7:a1:04:a6:f9:c3:86:37:25:50:3d:82:3c:68:43:9c:44:da:
         cb:03:b5:42:d9:de:72:a7:19:69:8c:37:7a:8e:06:84:59:08:
         0e:8a:8c:ab:35:f3:ad:29:d3:db:66:d5:27:14:b1:a8:c3:27:
         5e:53:a7:59:c8:cd:f4:74:a0:fe:b7:fb:66:c9:c7:e2:57:33:
         c7:cf:28:e2:5e:db:8e:61:8f:6a:ec:d5:cd:c9:5e:c1:82:7b:
         e5:15:ae:51:ac:a2:d1:be:c1:1d:0f:76:b7:a3:69:72:7c:1d:
         b8:41:40:77:1b:86:08:ec:0f:51:9b:e8:48:26:e1:8c:51:28:
         0b:5c:55:8d:ea:f4:42:8a:58:01:a1:6c:2d:6a:bc:28:75:88:
         b3:4a:a3:71:5e:1a:09:b6:af:71:06:2f:87:18:24:16:f6:7e:
         14:8a:96:d8:c8:4a:a0:83:85:8a:b8:b6:99:4e:21:e4:12:24:
         9c:89:0b:c8:1f:5b:f0:67:31:4d:fd:95:38:cd:82:74:a3:8c:
         63:cb:41:71:95:f9:49:5b:fc:28:0d:30:9d:d1:85:12:5d:06:
         82:dc:a4:89:bf:11:e2:f1:e8:92:ea:ff:61:2b:c7:2e:c2:c6:
         36:92:39:c0:f4:50:a6:b5:e3:e7:73:2d:21:d5:b1:77:ed:1d:
         9b:8e:cb:9e:3c:5f:c9:b5:f0:aa:ee:49:9b:1f:e6:e0:13:dd:
         ce:cd:aa:55:ed:af:d6:20:39:55:2a:48:9c:a4:34:01:d3:1a:
         2f:c1:1c:1d:5d:0b:67:25:2a:fc:4d:12:57:cb:59:6a:c6:f7:
         26:80:77:94:c5:5b:4f:b7:c2:c6:83:23:04:59:2f:9f:38:02:
         c1:70:c0:00:f7:28:ca:35:a1:4f:f6:cd:1b:ed:9b:41:3e:56:
         08:6c:b8:3f:d9:20:4d:71:69:51:93:3d:a2:fb:a6:1f:d8:80:
         2f:7e:d2:b1:87:89:e6:ae:4f:c4:97:cf:a4:72:a7:78:74:46:
         d6:0c:2c:56:4e:31:32:8c:ef:18:e6:71:b3:19:0f:0a:ce:73:
         e2:7f:5e:32:bd:75:b8:82:aa:5c:79:fc:1f:0f:d3:15:9a:61:
         81:f3:bc:4e:7f:7d:a7:e2:3d:8c:e8:1b:21:55:51:7a:ae:bb:
         47:45:08:24:2b:be:31:7f:cb:4b:42:4c:f9:b8:85:08:a6:de:
         4d:45:fb:93:42:85:c6:de:36:08:0d:fa:4a:be:55:d9:52:a8:
         f8:50:12:e3:98:fa:43:6f
SHA1 Fingerprint=38:D6:63:9F:51:D7:24:21:AD:75:3C:C6:07:54:99:B7:1F:EC:F7:FC
